target datalayout = "e-m:e-p270:32:32-p271:32:32-p272:64:64-i64:64-i128:128-f80:128-n8:16:32:64-S128"
target triple = "x86_64-pc-linux-gnu"

%struct.Node = type { i32 }
%struct.ErrorSaveContext = type { i32, i8, i8, ptr }

@.str.2 = private unnamed_addr constant [12 x i8] c"jsonfuncs.c\00", align 1
@.str.4 = private unnamed_addr constant [36 x i8] c"unsupported Unicode escape sequence\00", align 1
@.str.5 = private unnamed_addr constant [3 x i8] c"%s\00", align 1
@__func__.json_errsave_error = private unnamed_addr constant [19 x i8] c"json_errsave_error\00", align 1
@.str.6 = private unnamed_addr constant [64 x i8] c"JSON semantic action function did not provide error information\00", align 1
@.str.7 = private unnamed_addr constant [33 x i8] c"invalid input syntax for type %s\00", align 1
@.str.8 = private unnamed_addr constant [5 x i8] c"json\00", align 1

; Function Attrs: nounwind uwtable
define dso_local void @json_errsave_error(i32 noundef %0, ptr noundef %1, ptr noundef %2) #0 {
  %4 = alloca i32, align 4
  %5 = alloca ptr, align 8
  %6 = alloca ptr, align 8
  %7 = alloca ptr, align 8
  %8 = alloca ptr, align 8
  store i32 %0, ptr %4, align 4
  store ptr %1, ptr %5, align 8
  store ptr %2, ptr %6, align 8
  %9 = load i32, ptr %4, align 4
  %10 = icmp eq i32 %9, 19
  br i1 %10, label %17, label %11

11:                                               ; preds = %3
  %12 = load i32, ptr %4, align 4
  %13 = icmp eq i32 %12, 20
  br i1 %13, label %17, label %14

14:                                               ; preds = %11
  %15 = load i32, ptr %4, align 4
  %16 = icmp eq i32 %15, 17
  br i1 %16, label %17, label %34

17:                                               ; preds = %14, %11, %3
  br label %18

18:                                               ; preds = %17
  call void @llvm.lifetime.start.p0(i64 8, ptr %7) #10
  %19 = load ptr, ptr %6, align 8
  store ptr %19, ptr %7, align 8
  %20 = load ptr, ptr %7, align 8
  %21 = call zeroext i1 @errsave_start(ptr noundef %20, ptr noundef null)
  br i1 %21, label %22, label %32

22:                                               ; preds = %18
  %23 = call i32 @errcode(i32 noundef 84017282)
  %24 = call i32 (ptr, ...) @errmsg(ptr noundef @.str.4)
  %25 = load i32, ptr %4, align 4
  %26 = load ptr, ptr %5, align 8
  %27 = call ptr @json_errdetail(i32 noundef %25, ptr noundef %26)
  %28 = call i32 (ptr, ...) @errdetail_internal(ptr noundef @.str.5, ptr noundef %27)
  %29 = load ptr, ptr %5, align 8
  %30 = call i32 @report_json_context(ptr noundef %29)
  %31 = load ptr, ptr %7, align 8
  call void @errsave_finish(ptr noundef %31, ptr noundef @.str.2, i32 noundef 650, ptr noundef @__func__.json_errsave_error)
  br label %32

32:                                               ; preds = %22, %18
  call void @llvm.lifetime.end.p0(i64 8, ptr %7) #10
  br label %33

33:                                               ; preds = %32
  br label %79

34:                                               ; preds = %14
  %35 = load i32, ptr %4, align 4
  %36 = icmp eq i32 %35, 23
  br i1 %36, label %37, label %61

37:                                               ; preds = %34
  %38 = load ptr, ptr %6, align 8
  %39 = icmp ne ptr %38, null
  br i1 %39, label %40, label %50

40:                                               ; preds = %37
  %41 = load ptr, ptr %6, align 8
  %42 = getelementptr inbounds nuw %struct.Node, ptr %41, i32 0, i32 0
  %43 = load i32, ptr %42, align 4
  %44 = icmp eq i32 %43, 446
  br i1 %44, label %45, label %50

45:                                               ; preds = %40
  %46 = load ptr, ptr %6, align 8
  %47 = getelementptr inbounds nuw %struct.ErrorSaveContext, ptr %46, i32 0, i32 1
  %48 = load i8, ptr %47, align 4, !range !4, !noundef !5
  %49 = trunc i8 %48 to i1
  br i1 %49, label %60, label %50

50:                                               ; preds = %45, %40, %37
  br label %51

51:                                               ; preds = %50
  br i1 true, label %52, label %54

52:                                               ; preds = %51
  %53 = call zeroext i1 @errstart_cold(i32 noundef 21, ptr noundef null) #11
  br i1 %53, label %56, label %58

54:                                               ; preds = %51
  %55 = call zeroext i1 @errstart(i32 noundef 21, ptr noundef null)
  br i1 %55, label %56, label %58

56:                                               ; preds = %54, %52
  %57 = call i32 (ptr, ...) @errmsg_internal(ptr noundef @.str.6)
  call void @errfinish(ptr noundef @.str.2, i32 noundef 655, ptr noundef @__func__.json_errsave_error)
  br label %58

58:                                               ; preds = %56, %54, %52
  unreachable

59:                                               ; No predecessors!
  br label %60

60:                                               ; preds = %59, %45
  br label %78

61:                                               ; preds = %34
  br label %62

62:                                               ; preds = %61
  call void @llvm.lifetime.start.p0(i64 8, ptr %8) #10
  %63 = load ptr, ptr %6, align 8
  store ptr %63, ptr %8, align 8
  %64 = load ptr, ptr %8, align 8
  %65 = call zeroext i1 @errsave_start(ptr noundef %64, ptr noundef null)
  br i1 %65, label %66, label %76

66:                                               ; preds = %62
  %67 = call i32 @errcode(i32 noundef 33685634)
  %68 = call i32 (ptr, ...) @errmsg(ptr noundef @.str.7, ptr noundef @.str.8)
  %69 = load i32, ptr %4, align 4
  %70 = load ptr, ptr %5, align 8
  %71 = call ptr @json_errdetail(i32 noundef %69, ptr noundef %70)
  %72 = call i32 (ptr, ...) @errdetail_internal(ptr noundef @.str.5, ptr noundef %71)
  %73 = load ptr, ptr %5, align 8
  %74 = call i32 @report_json_context(ptr noundef %73)
  %75 = load ptr, ptr %8, align 8
  call void @errsave_finish(ptr noundef %75, ptr noundef @.str.2, i32 noundef 662, ptr noundef @__func__.json_errsave_error)
  br label %76

76:                                               ; preds = %66, %62
  call void @llvm.lifetime.end.p0(i64 8, ptr %8) #10
  br label %77

77:                                               ; preds = %76
  br label %78

78:                                               ; preds = %77, %60
  br label %79

79:                                               ; preds = %78, %33
  ret void
}