; Function Attrs: nounwind uwtable
define dso_local void @json_errsave_error(i32 noundef %0, ptr noundef %1, ptr noundef %2) local_unnamed_addr #0 {
  switch i32 %0, label %20 [
    i32 20, label %4
    i32 19, label %4
    i32 17, label %4
    i32 23, label %9
  ]

4:                                                ; preds = %3, %3, %3
  %5 = tail call zeroext i1 @errsave_start(ptr noundef %2, ptr noundef null) #15
  br i1 %5, label %6, label %27

6:                                                ; preds = %4
  %7 = tail call i32 @errcode(i32 noundef 84017282) #15
  %8 = tail call i32 (ptr, ...) @errmsg(ptr noundef nonnull @.str.4) #15
  br label %.sink.split

9:                                                ; preds = %3
  %.not = icmp eq ptr %2, null
  br i1 %.not, label %17, label %10

10:                                               ; preds = %9
  %11 = load i32, ptr %2, align 4
  %12 = icmp eq i32 %11, 446
  br i1 %12, label %13, label %17

13:                                               ; preds = %10
  %14 = getelementptr inbounds nuw i8, ptr %2, i64 4
  %15 = load i8, ptr %14, align 4, !range !4, !noundef !5
  %16 = trunc nuw i8 %15 to i1
  br i1 %16, label %27, label %17

17:                                               ; preds = %13, %10, %9
  %18 = tail call zeroext i1 @errstart_cold(i32 noundef 21, ptr noundef null) #16
  tail call void @llvm.assume(i1 %18)
  %19 = tail call i32 (ptr, ...) @errmsg_internal(ptr noundef nonnull @.str.6) #15
  tail call void @errfinish(ptr noundef nonnull @.str.2, i32 noundef 655, ptr noundef nonnull @__func__.json_errsave_error) #15
  unreachable

20:                                               ; preds = %3
  %21 = tail call zeroext i1 @errsave_start(ptr noundef %2, ptr noundef null) #15
  br i1 %21, label %22, label %27

22:                                               ; preds = %20
  %23 = tail call i32 @errcode(i32 noundef 33685634) #15
  %24 = tail call i32 (ptr, ...) @errmsg(ptr noundef nonnull @.str.7, ptr noundef nonnull @.str.8) #15
  br label %.sink.split

.sink.split:                                      ; preds = %6, %22
  %.sink = phi i32 [ 662, %22 ], [ 650, %6 ]
  %25 = tail call ptr @json_errdetail(i32 noundef %0, ptr noundef %1) #15
  %26 = tail call i32 (ptr, ...) @errdetail_internal(ptr noundef nonnull @.str.5, ptr noundef %25) #15
  tail call fastcc void @report_json_context(ptr noundef %1)
  tail call void @errsave_finish(ptr noundef %2, ptr noundef nonnull @.str.2, i32 noundef %.sink, ptr noundef nonnull @__func__.json_errsave_error) #15
  br label %27

27:                                               ; preds = %.sink.split, %20, %4, %13
  ret void
}